; Function Attrs: mustprogress nounwind uwtable
define void @_ZN2cv5flann11IndexParamsD2Ev(ptr noundef nonnull readonly align 8 captures(none) dereferenceable(8) %0) unnamed_addr #3 align 2 personality ptr @__gxx_personality_v0 {
  %.val = load ptr, ptr %0, align 8, !tbaa !3
  %2 = getelementptr inbounds nuw i8, ptr %.val, i64 16
  %3 = load ptr, ptr %2, align 8, !tbaa !8
  invoke void @_ZNSt8_Rb_treeINSt7__cxx1112basic_stringIcSt11char_traitsIcESaIcEEESt4pairIKS5_N7cvflann3anyEESt10_Select1stISA_ESt4lessIS5_ESaISA_EE8_M_eraseEPSt13_Rb_tree_nodeISA_E(ptr noundef nonnull align 8 dereferenceable(48) %.val, ptr noundef %3)
          to label %_ZNSt3mapINSt7__cxx1112basic_stringIcSt11char_traitsIcESaIcEEEN7cvflann3anyESt4lessIS5_ESaISt4pairIKS5_S7_EEED2Ev.exit unwind label %4

4:                                                ; preds = %1
  %5 = landingpad { ptr, i32 }
          catch ptr null
  %6 = extractvalue { ptr, i32 } %5, 0
  tail call void @__clang_call_terminate(ptr %6) #32
  unreachable

_ZNSt3mapINSt7__cxx1112basic_stringIcSt11char_traitsIcESaIcEEEN7cvflann3anyESt4lessIS5_ESaISt4pairIKS5_S7_EEED2Ev.exit: ; preds = %1
  tail call void @_ZdlPv(ptr noundef nonnull %.val) #33
  ret void
}